; ModuleID = '5/706.c'
source_filename = "5/706.c"
target datalayout = "e-m:e-p270:32:32-p271:32:32-p272:64:64-i64:64-f80:128-n8:16:32:64-S128"
target triple = "x86_64-pc-linux-gnu"

@.str = private unnamed_addr constant [11 x i8] c"%lf\0A%s\0A%s\0A\00", align 1
@.str.1 = private unnamed_addr constant [6 x i8] c"error\00", align 1
@.str.2 = private unnamed_addr constant [4 x i8] c"yes\00", align 1
@.str.3 = private unnamed_addr constant [3 x i8] c"no\00", align 1

; Function Attrs: noinline nounwind uwtable
define dso_local i32 @main() #0 {
  %1 = alloca i32, align 4
  %2 = alloca double, align 8
  %3 = alloca i32, align 4
  %4 = alloca i32, align 4
  %5 = alloca i32, align 4
  %6 = alloca [501 x i8], align 16
  %7 = alloca [501 x i8], align 16
  %8 = alloca i32, align 4
  %9 = alloca i32, align 4
  store i32 0, i32* %1, align 4
  store i32 1, i32* %5, align 4
  %10 = getelementptr inbounds [501 x i8], [501 x i8]* %6, i64 0, i64 0
  %11 = getelementptr inbounds [501 x i8], [501 x i8]* %7, i64 0, i64 0
  %12 = call i32 (i8*, ...) @__isoc99_scanf(i8* getelementptr inbounds ([11 x i8], [11 x i8]* @.str, i64 0, i64 0), double* %2, i8* %10, i8* %11)
  %13 = getelementptr inbounds [501 x i8], [501 x i8]* %6, i64 0, i64 0
  %14 = call i64 @strlen(i8* %13) #3
  %15 = trunc i64 %14 to i32
  store i32 %15, i32* %8, align 4
  %16 = getelementptr inbounds [501 x i8], [501 x i8]* %7, i64 0, i64 0
  %17 = call i64 @strlen(i8* %16) #3
  %18 = trunc i64 %17 to i32
  store i32 %18, i32* %9, align 4
  %19 = load i32, i32* %8, align 4
  %20 = load i32, i32* %9, align 4
  %21 = icmp ne i32 %19, %20
  br i1 %21, label %22, label %24

22:                                               ; preds = %0
  %23 = call i32 (i8*, ...) @printf(i8* getelementptr inbounds ([6 x i8], [6 x i8]* @.str.1, i64 0, i64 0))
  br label %144

24:                                               ; preds = %0
  %25 = load i32, i32* %8, align 4
  %26 = load i32, i32* %9, align 4
  %27 = icmp eq i32 %25, %26
  br i1 %27, label %28, label %143

28:                                               ; preds = %24
  store i32 0, i32* %3, align 4
  br label %29

29:                                               ; preds = %108, %28
  %30 = load i32, i32* %3, align 4
  %31 = load i32, i32* %8, align 4
  %32 = icmp slt i32 %30, %31
  br i1 %32, label %33, label %111

33:                                               ; preds = %29
  %34 = load i32, i32* %3, align 4
  %35 = sext i32 %34 to i64
  %36 = getelementptr inbounds [501 x i8], [501 x i8]* %6, i64 0, i64 %35
  %37 = load i8, i8* %36, align 1
  %38 = sext i8 %37 to i32
  %39 = icmp ne i32 %38, 65
  br i1 %39, label %40, label %61

40:                                               ; preds = %33
  %41 = load i32, i32* %3, align 4
  %42 = sext i32 %41 to i64
  %43 = getelementptr inbounds [501 x i8], [501 x i8]* %6, i64 0, i64 %42
  %44 = load i8, i8* %43, align 1
  %45 = sext i8 %44 to i32
  %46 = icmp ne i32 %45, 84
  br i1 %46, label %47, label %61

47:                                               ; preds = %40
  %48 = load i32, i32* %3, align 4
  %49 = sext i32 %48 to i64
  %50 = getelementptr inbounds [501 x i8], [501 x i8]* %6, i64 0, i64 %49
  %51 = load i8, i8* %50, align 1
  %52 = sext i8 %51 to i32
  %53 = icmp ne i32 %52, 67
  br i1 %53, label %54, label %61

54:                                               ; preds = %47
  %55 = load i32, i32* %3, align 4
  %56 = sext i32 %55 to i64
  %57 = getelementptr inbounds [501 x i8], [501 x i8]* %6, i64 0, i64 %56
  %58 = load i8, i8* %57, align 1
  %59 = sext i8 %58 to i32
  %60 = icmp ne i32 %59, 71
  br i1 %60, label %89, label %61

61:                                               ; preds = %54, %47, %40, %33
  %62 = load i32, i32* %3, align 4
  %63 = sext i32 %62 to i64
  %64 = getelementptr inbounds [501 x i8], [501 x i8]* %7, i64 0, i64 %63
  %65 = load i8, i8* %64, align 1
  %66 = sext i8 %65 to i32
  %67 = icmp ne i32 %66, 65
  br i1 %67, label %68, label %91

68:                                               ; preds = %61
  %69 = load i32, i32* %3, align 4
  %70 = sext i32 %69 to i64
  %71 = getelementptr inbounds [501 x i8], [501 x i8]* %7, i64 0, i64 %70
  %72 = load i8, i8* %71, align 1
  %73 = sext i8 %72 to i32
  %74 = icmp ne i32 %73, 84
  br i1 %74, label %75, label %91

75:                                               ; preds = %68
  %76 = load i32, i32* %3, align 4
  %77 = sext i32 %76 to i64
  %78 = getelementptr inbounds [501 x i8], [501 x i8]* %7, i64 0, i64 %77
  %79 = load i8, i8* %78, align 1
  %80 = sext i8 %79 to i32
  %81 = icmp ne i32 %80, 67
  br i1 %81, label %82, label %91

82:                                               ; preds = %75
  %83 = load i32, i32* %3, align 4
  %84 = sext i32 %83 to i64
  %85 = getelementptr inbounds [501 x i8], [501 x i8]* %7, i64 0, i64 %84
  %86 = load i8, i8* %85, align 1
  %87 = sext i8 %86 to i32
  %88 = icmp ne i32 %87, 71
  br i1 %88, label %89, label %91

89:                                               ; preds = %82, %54
  %90 = call i32 (i8*, ...) @printf(i8* getelementptr inbounds ([6 x i8], [6 x i8]* @.str.1, i64 0, i64 0))
  store i32 0, i32* %4, align 4
  br label %111

91:                                               ; preds = %82, %75, %68, %61
  %92 = load i32, i32* %3, align 4
  %93 = sext i32 %92 to i64
  %94 = getelementptr inbounds [501 x i8], [501 x i8]* %6, i64 0, i64 %93
  %95 = load i8, i8* %94, align 1
  %96 = sext i8 %95 to i32
  %97 = load i32, i32* %3, align 4
  %98 = sext i32 %97 to i64
  %99 = getelementptr inbounds [501 x i8], [501 x i8]* %7, i64 0, i64 %98
  %100 = load i8, i8* %99, align 1
  %101 = sext i8 %100 to i32
  %102 = icmp eq i32 %96, %101
  br i1 %102, label %103, label %106

103:                                              ; preds = %91
  %104 = load i32, i32* %5, align 4
  %105 = add nsw i32 %104, 1
  store i32 %105, i32* %5, align 4
  br label %106

106:                                              ; preds = %103, %91
  br label %107

107:                                              ; preds = %106
  br label %108

108:                                              ; preds = %107
  %109 = load i32, i32* %3, align 4
  %110 = add nsw i32 %109, 1
  store i32 %110, i32* %3, align 4
  br label %29

111:                                              ; preds = %89, %29
  %112 = load i32, i32* %5, align 4
  %113 = sitofp i32 %112 to double
  %114 = fmul double 1.000000e+00, %113
  %115 = load i32, i32* %8, align 4
  %116 = sitofp i32 %115 to double
  %117 = fmul double 1.000000e+00, %116
  %118 = fdiv double %114, %117
  %119 = load double, double* %2, align 8
  %120 = fcmp ogt double %118, %119
  br i1 %120, label %121, label %126

121:                                              ; preds = %111
  %122 = load i32, i32* %4, align 4
  %123 = icmp ne i32 %122, 0
  br i1 %123, label %124, label %126

124:                                              ; preds = %121
  %125 = call i32 (i8*, ...) @printf(i8* getelementptr inbounds ([4 x i8], [4 x i8]* @.str.2, i64 0, i64 0))
  br label %142

126:                                              ; preds = %121, %111
  %127 = load i32, i32* %5, align 4
  %128 = sitofp i32 %127 to double
  %129 = fmul double 1.000000e+00, %128
  %130 = load i32, i32* %8, align 4
  %131 = sitofp i32 %130 to double
  %132 = fmul double 1.000000e+00, %131
  %133 = fdiv double %129, %132
  %134 = load double, double* %2, align 8
  %135 = fcmp ole double %133, %134
  br i1 %135, label %136, label %141

136:                                              ; preds = %126
  %137 = load i32, i32* %4, align 4
  %138 = icmp ne i32 %137, 0
  br i1 %138, label %139, label %141

139:                                              ; preds = %136
  %140 = call i32 (i8*, ...) @printf(i8* getelementptr inbounds ([3 x i8], [3 x i8]* @.str.3, i64 0, i64 0))
  br label %141

141:                                              ; preds = %139, %136, %126
  br label %142

142:                                              ; preds = %141, %124
  br label %143

143:                                              ; preds = %142, %24
  br label %144

144:                                              ; preds = %143, %22
  ret i32 0
}

declare dso_local i32 @__isoc99_scanf(i8*, ...) #1

; Function Attrs: nounwind readonly
declare dso_local i64 @strlen(i8*) #2

declare dso_local i32 @printf(i8*, ...) #1


!llvm.module.flags = !{!0}
!llvm.ident = !{!1}

!0 = !{i32 1, !"wchar_size", i32 4}
!1 = !{!"clang version 10.0.0-4ubuntu1 "}
